(lp1
(I4
I221
tp2
a(I6
I200
tp3
a(I7
I200
tp4
a(I8
I222
tp5
a(I12
I222
tp6
a(I14
I259
tp7
a(I19
I260
tp8
a(I34
I261
tp9
a(I36
I200
tp10
a(I36
I219
tp11
a(I37
I199
tp12
a(I38
I198
tp13
a(I39
I198
tp14
a(I45
I191
tp15
a(I49
I82
tp16
a(I51
I82
tp17
a(I52
I260
tp18
a(I55
I258
tp19
a(I57
I220
tp20
a(I59
I261
tp21
a(I96
I254
tp22
a(I98
I252
tp23
a(I100
I205
tp24
a(I106
I197
tp25
a(I110
I69
tp26
a(I110
I82
tp27
a(I112
I69
tp28
a(I113
I68
tp29
a(I117
I24
tp30
a(I117
I25
tp31
a(I118
I26
tp32
a(I118
I23
tp33
a(I118
I25
tp34
a(I118
I22
tp35
a(I119
I23
tp36
a(I119
I12
tp37
a(I119
I25
tp38
a(I119
I21
tp39
a(I119
I22
tp40
a(I120
I26
tp41
a(I120
I23
tp42
a(I120
I25
tp43
a(I120
I22
tp44
a(I121
I73
tp45
a(I122
I75
tp46
a(I123
I73
tp47
a(I124
I68
tp48
a(I124
I81
tp49
a(I125
I67
tp50
a(I125
I22
tp51
a(I126
I22
tp52
a(I127
I21
tp53
a(I127
I22
tp54
a(I129
I12
tp55
a(I129
I10
tp56
a(I129
I11
tp57
a(I130
I12
tp58
a(I130
I21
tp59
a(I130
I10
tp60
a(I130
I11
tp61
a(I134
I29
tp62
a(I135
I9
tp63
a(I135
I10
tp64
a(I149
I84
tp65
a(I153
I256
tp66
a(I155
I95
tp67
a(I157
I95
tp68
a(I160
I85
tp69
a(I160
I86
tp70
a(I167
I255
tp71
a(I174
I91
tp72
a(I184
I89
tp73
a(I185
I87
tp74
a(I188
I74
tp75
a(I189
I83
tp76
a.